target datalayout = "e-m:e-p270:32:32-p271:32:32-p272:64:64-i64:64-i128:128-f80:128-n8:16:32:64-S128"
target triple = "x86_64-pc-linux-gnu"

@_ZN5arrow8bit_utilL17kPrecedingBitmaskE = internal constant [8 x i8] c"\00\01\03\07\0F\1F?\7F", align 1

; Function Attrs: mustprogress nounwind uwtable
define linkonce_odr noundef zeroext i8 @_ZN5arrow8bit_util20PrecedingWordBitmaskIhEET_j(i32 noundef %0) #0 comdat {
  %2 = alloca i32, align 4
  store i32 %0, ptr %2, align 4, !tbaa !15
  %3 = load i32, ptr %2, align 4, !tbaa !15
  %4 = zext i32 %3 to i64
  %5 = icmp ult i64 %4, 8
  %6 = zext i1 %5 to i8
  %7 = zext i8 %6 to i32
  %8 = load i32, ptr %2, align 4, !tbaa !15
  %9 = zext i32 %8 to i64
  %10 = and i64 %9, 7
  %11 = trunc i64 %10 to i32
  %12 = shl i32 %7, %11
  %13 = trunc i32 %12 to i8
  %14 = zext i8 %13 to i32
  %15 = sub nsw i32 %14, 1
  %16 = trunc i32 %15 to i8
  ret i8 %16
}

; Function Attrs: mustprogress nounwind uwtable
define linkonce_odr noundef i64 @_ZN5arrow8bit_util7CeilDivEll(i64 noundef %0, i64 noundef %1) #0 comdat {
  %3 = alloca i64, align 8
  %4 = alloca i64, align 8
  store i64 %0, ptr %3, align 8, !tbaa !8
  store i64 %1, ptr %4, align 8, !tbaa !8
  %5 = load i64, ptr %3, align 8, !tbaa !8
  %6 = icmp eq i64 %5, 0
  br i1 %6, label %7, label %8

7:                                                ; preds = %2
  br label %14

8:                                                ; preds = %2
  %9 = load i64, ptr %3, align 8, !tbaa !8
  %10 = sub nsw i64 %9, 1
  %11 = load i64, ptr %4, align 8, !tbaa !8
  %12 = sdiv i64 %10, %11
  %13 = add nsw i64 1, %12
  br label %14

14:                                               ; preds = %8, %7
  %15 = phi i64 [ 0, %7 ], [ %13, %8 ]
  ret i64 %15
}

; Function Attrs: mustprogress nounwind uwtable
define linkonce_odr noundef i64 @_ZN5arrow8bit_util9RoundDownEll(i64 noundef %0, i64 noundef %1) #0 comdat {
  %3 = alloca i64, align 8
  %4 = alloca i64, align 8
  store i64 %0, ptr %3, align 8, !tbaa !8
  store i64 %1, ptr %4, align 8, !tbaa !8
  %5 = load i64, ptr %3, align 8, !tbaa !8
  %6 = load i64, ptr %4, align 8, !tbaa !8
  %7 = sdiv i64 %5, %6
  %8 = load i64, ptr %4, align 8, !tbaa !8
  %9 = mul nsw i64 %7, %8
  ret i64 %9
}

; Function Attrs: mustprogress uwtable
define linkonce_odr noundef zeroext i8 @_ZN5arrow8bit_util10SpliceWordIhEET_iS2_S2_(i32 noundef %0, i8 noundef zeroext %1, i8 noundef zeroext %2) #3 comdat {
  %4 = alloca i32, align 4
  %5 = alloca i8, align 1
  %6 = alloca i8, align 1
  store i32 %0, ptr %4, align 4, !tbaa !15
  store i8 %1, ptr %5, align 1, !tbaa !14
  store i8 %2, ptr %6, align 1, !tbaa !14
  %7 = load i8, ptr %6, align 1, !tbaa !14
  %8 = zext i8 %7 to i32
  %9 = load i32, ptr %4, align 4, !tbaa !15
  %10 = call noundef zeroext i8 @_ZN5arrow8bit_util20PrecedingWordBitmaskIhEET_j(i32 noundef %9)
  %11 = zext i8 %10 to i32
  %12 = xor i32 %11, -1
  %13 = and i32 %8, %12
  %14 = load i8, ptr %5, align 1, !tbaa !14
  %15 = zext i8 %14 to i32
  %16 = load i32, ptr %4, align 4, !tbaa !15
  %17 = call noundef zeroext i8 @_ZN5arrow8bit_util20PrecedingWordBitmaskIhEET_j(i32 noundef %16)
  %18 = zext i8 %17 to i32
  %19 = and i32 %15, %18
  %20 = or i32 %13, %19
  %21 = trunc i32 %20 to i8
  ret i8 %21
}

; Function Attrs: mustprogress uwtable
define linkonce_odr noundef i64 @_ZN5arrow8bit_util7RoundUpEll(i64 noundef %0, i64 noundef %1) #3 comdat {
  %3 = alloca i64, align 8
  %4 = alloca i64, align 8
  store i64 %0, ptr %3, align 8, !tbaa !8
  store i64 %1, ptr %4, align 8, !tbaa !8
  %5 = load i64, ptr %3, align 8, !tbaa !8
  %6 = load i64, ptr %4, align 8, !tbaa !8
  %7 = call noundef i64 @_ZN5arrow8bit_util7CeilDivEll(i64 noundef %5, i64 noundef %6)
  %8 = load i64, ptr %4, align 8, !tbaa !8
  %9 = mul nsw i64 %7, %8
  ret i64 %9
}

; Function Attrs: mustprogress uwtable
define linkonce_odr void @_ZN5arrow8bit_util13SetBitmapImplILb0EEEvPhll(ptr noundef %0, i64 noundef %1, i64 noundef %2) #3 comdat {
  %4 = alloca ptr, align 8
  %5 = alloca i64, align 8
  %6 = alloca i64, align 8
  %7 = alloca i8, align 1
  %8 = alloca i32, align 4
  %9 = alloca i8, align 1
  %10 = alloca i32, align 4
  store ptr %0, ptr %4, align 8, !tbaa !3
  store i64 %1, ptr %5, align 8, !tbaa !8
  store i64 %2, ptr %6, align 8, !tbaa !8
  %11 = load i64, ptr %6, align 8, !tbaa !8
  %12 = icmp eq i64 %11, 0
  %13 = xor i1 %12, true
  %14 = xor i1 %13, true
  %15 = zext i1 %14 to i64
  %16 = call i64 @llvm.expect.i64(i64 %15, i64 0)
  %17 = icmp ne i64 %16, 0
  br i1 %17, label %18, label %19

18:                                               ; preds = %3
  br label %141

19:                                               ; preds = %3
  call void @llvm.lifetime.start.p0(i64 1, ptr %7) #5
  store i8 0, ptr %7, align 1, !tbaa !14
  call void @llvm.lifetime.start.p0(i64 4, ptr %8) #5
  %20 = load i64, ptr %5, align 8, !tbaa !8
  %21 = call noundef i64 @_ZN5arrow8bit_util7RoundUpEll(i64 noundef %20, i64 noundef 8)
  %22 = load i64, ptr %5, align 8, !tbaa !8
  %23 = sub nsw i64 %21, %22
  %24 = trunc i64 %23 to i32
  store i32 %24, ptr %8, align 4, !tbaa !15
  br label %25

25:                                               ; preds = %26, %19
  br i1 false, label %26, label %27

26:                                               ; preds = %25
  br label %25, !llvm.loop !27

27:                                               ; preds = %25
  br label %28

28:                                               ; preds = %29, %27
  br i1 false, label %29, label %30

29:                                               ; preds = %28
  br label %28, !llvm.loop !28

30:                                               ; preds = %28
  br label %31

31:                                               ; preds = %32, %30
  br i1 false, label %32, label %33

32:                                               ; preds = %31
  br label %31, !llvm.loop !29

33:                                               ; preds = %31
  %34 = load i64, ptr %6, align 8, !tbaa !8
  %35 = load i32, ptr %8, align 4, !tbaa !15
  %36 = sext i32 %35 to i64
  %37 = icmp slt i64 %34, %36
  br i1 %37, label %38, label %70

38:                                               ; preds = %33
  call void @llvm.lifetime.start.p0(i64 1, ptr %9) #5
  %39 = load i32, ptr %8, align 4, !tbaa !15
  %40 = sub nsw i32 8, %39
  %41 = sext i32 %40 to i64
  %42 = getelementptr inbounds [8 x i8], ptr @_ZN5arrow8bit_utilL17kPrecedingBitmaskE, i64 0, i64 %41
  %43 = load i8, ptr %42, align 1, !tbaa !14
  %44 = zext i8 %43 to i32
  %45 = load i32, ptr %8, align 4, !tbaa !15
  %46 = sub nsw i32 8, %45
  %47 = sext i32 %46 to i64
  %48 = load i64, ptr %6, align 8, !tbaa !8
  %49 = add nsw i64 %47, %48
  %50 = getelementptr inbounds [8 x i8], ptr @_ZN5arrow8bit_utilL17kPrecedingBitmaskE, i64 0, i64 %49
  %51 = load i8, ptr %50, align 1, !tbaa !14
  %52 = zext i8 %51 to i32
  %53 = xor i32 %44, %52
  %54 = trunc i32 %53 to i8
  store i8 %54, ptr %9, align 1, !tbaa !14
  %55 = load ptr, ptr %4, align 8, !tbaa !3
  %56 = load i64, ptr %5, align 8, !tbaa !8
  %57 = sdiv i64 %56, 8
  %58 = getelementptr inbounds i8, ptr %55, i64 %57
  %59 = load i8, ptr %58, align 1, !tbaa !14
  %60 = zext i8 %59 to i32
  %61 = load i8, ptr %9, align 1, !tbaa !14
  %62 = zext i8 %61 to i32
  %63 = xor i32 %62, -1
  %64 = and i32 %60, %63
  %65 = trunc i32 %64 to i8
  %66 = load ptr, ptr %4, align 8, !tbaa !3
  %67 = load i64, ptr %5, align 8, !tbaa !8
  %68 = sdiv i64 %67, 8
  %69 = getelementptr inbounds i8, ptr %66, i64 %68
  store i8 %65, ptr %69, align 1, !tbaa !14
  store i32 1, ptr %10, align 4
  call void @llvm.lifetime.end.p0(i64 1, ptr %9) #5
  br label %139

70:                                               ; preds = %33
  %71 = load i32, ptr %8, align 4, !tbaa !15
  %72 = sub nsw i32 8, %71
  %73 = load ptr, ptr %4, align 8, !tbaa !3
  %74 = load i64, ptr %5, align 8, !tbaa !8
  %75 = sdiv i64 %74, 8
  %76 = getelementptr inbounds i8, ptr %73, i64 %75
  %77 = load i8, ptr %76, align 1, !tbaa !14
  %78 = call noundef zeroext i8 @_ZN5arrow8bit_util10SpliceWordIhEET_iS2_S2_(i32 noundef %72, i8 noundef zeroext %77, i8 noundef zeroext 0)
  %79 = load ptr, ptr %4, align 8, !tbaa !3
  %80 = load i64, ptr %5, align 8, !tbaa !8
  %81 = sdiv i64 %80, 8
  %82 = getelementptr inbounds i8, ptr %79, i64 %81
  store i8 %78, ptr %82, align 1, !tbaa !14
  %83 = load i32, ptr %8, align 4, !tbaa !15
  %84 = sext i32 %83 to i64
  %85 = load i64, ptr %5, align 8, !tbaa !8
  %86 = add nsw i64 %85, %84
  store i64 %86, ptr %5, align 8, !tbaa !8
  %87 = load i32, ptr %8, align 4, !tbaa !15
  %88 = sext i32 %87 to i64
  %89 = load i64, ptr %6, align 8, !tbaa !8
  %90 = sub nsw i64 %89, %88
  store i64 %90, ptr %6, align 8, !tbaa !8
  br label %91

91:                                               ; preds = %92, %70
  br i1 false, label %92, label %93

92:                                               ; preds = %91
  br label %91, !llvm.loop !30

93:                                               ; preds = %91
  br label %94

94:                                               ; preds = %95, %93
  br i1 false, label %95, label %96

95:                                               ; preds = %94
  br label %94, !llvm.loop !31

96:                                               ; preds = %94
  br label %97

97:                                               ; preds = %98, %96
  br i1 false, label %98, label %99

98:                                               ; preds = %97
  br label %97, !llvm.loop !32

99:                                               ; preds = %97
  %100 = load ptr, ptr %4, align 8, !tbaa !3
  %101 = load i64, ptr %5, align 8, !tbaa !8
  %102 = sdiv i64 %101, 8
  %103 = getelementptr inbounds i8, ptr %100, i64 %102
  %104 = load i64, ptr %6, align 8, !tbaa !8
  %105 = sdiv i64 %104, 8
  call void @llvm.memset.p0.i64(ptr align 1 %103, i8 0, i64 %105, i1 false)
  %106 = load i64, ptr %6, align 8, !tbaa !8
  %107 = call noundef i64 @_ZN5arrow8bit_util9RoundDownEll(i64 noundef %106, i64 noundef 8)
  %108 = load i64, ptr %5, align 8, !tbaa !8
  %109 = add nsw i64 %108, %107
  store i64 %109, ptr %5, align 8, !tbaa !8
  %110 = load i64, ptr %6, align 8, !tbaa !8
  %111 = call noundef i64 @_ZN5arrow8bit_util9RoundDownEll(i64 noundef %110, i64 noundef 8)
  %112 = load i64, ptr %6, align 8, !tbaa !8
  %113 = sub nsw i64 %112, %111
  store i64 %113, ptr %6, align 8, !tbaa !8
  br label %114

114:                                              ; preds = %115, %99
  br i1 false, label %115, label %116

115:                                              ; preds = %114
  br label %114, !llvm.loop !33

116:                                              ; preds = %114
  br label %117

117:                                              ; preds = %118, %116
  br i1 false, label %118, label %119

118:                                              ; preds = %117
  br label %117, !llvm.loop !34

119:                                              ; preds = %117
  br label %120

120:                                              ; preds = %121, %119
  br i1 false, label %121, label %122

121:                                              ; preds = %120
  br label %120, !llvm.loop !35

122:                                              ; preds = %120
  %123 = load i64, ptr %6, align 8, !tbaa !8
  %124 = icmp sgt i64 %123, 0
  br i1 %124, label %125, label %138

125:                                              ; preds = %122
  %126 = load i64, ptr %6, align 8, !tbaa !8
  %127 = trunc i64 %126 to i32
  %128 = load ptr, ptr %4, align 8, !tbaa !3
  %129 = load i64, ptr %5, align 8, !tbaa !8
  %130 = sdiv i64 %129, 8
  %131 = getelementptr inbounds i8, ptr %128, i64 %130
  %132 = load i8, ptr %131, align 1, !tbaa !14
  %133 = call noundef zeroext i8 @_ZN5arrow8bit_util10SpliceWordIhEET_iS2_S2_(i32 noundef %127, i8 noundef zeroext 0, i8 noundef zeroext %132)
  %134 = load ptr, ptr %4, align 8, !tbaa !3
  %135 = load i64, ptr %5, align 8, !tbaa !8
  %136 = sdiv i64 %135, 8
  %137 = getelementptr inbounds i8, ptr %134, i64 %136
  store i8 %133, ptr %137, align 1, !tbaa !14
  br label %138

138:                                              ; preds = %125, %122
  store i32 0, ptr %10, align 4
  br label %139

139:                                              ; preds = %138, %38
  call void @llvm.lifetime.end.p0(i64 4, ptr %8) #5
  call void @llvm.lifetime.end.p0(i64 1, ptr %7) #5
  %140 = load i32, ptr %10, align 4
  switch i32 %140, label %142 [
    i32 0, label %141
    i32 1, label %141
  ]

141:                                              ; preds = %18, %139, %139
  ret void

142:                                              ; preds = %139
  unreachable
}

; Function Attrs: mustprogress uwtable
define void @_ZN5arrow8bit_util11ClearBitmapEPhll(ptr noundef %0, i64 noundef %1, i64 noundef %2) #3 {
  %4 = alloca ptr, align 8
  %5 = alloca i64, align 8
  %6 = alloca i64, align 8
  store ptr %0, ptr %4, align 8, !tbaa !3
  store i64 %1, ptr %5, align 8, !tbaa !8
  store i64 %2, ptr %6, align 8, !tbaa !8
  %7 = load ptr, ptr %4, align 8, !tbaa !3
  %8 = load i64, ptr %5, align 8, !tbaa !8
  %9 = load i64, ptr %6, align 8, !tbaa !8
  call void @_ZN5arrow8bit_util13SetBitmapImplILb0EEEvPhll(ptr noundef %7, i64 noundef %8, i64 noundef %9)
  ret void
}