; Function Attrs: mustprogress nofree norecurse nosync nounwind willreturn memory(argmem: readwrite) uwtable
define void @_ZN5arrow8bit_util11ClearBitmapEPhll(ptr noundef captures(none) %0, i64 noundef %1, i64 noundef %2) local_unnamed_addr #0 {
  %4 = icmp eq i64 %2, 0
  br i1 %4, label %_ZN5arrow8bit_util13SetBitmapImplILb0EEEvPhll.exit, label %5, !prof !6

5:                                                ; preds = %3
  %6 = icmp eq i64 %1, 0
  br i1 %6, label %_ZN5arrow8bit_util7RoundUpEll.exit.i, label %7

7:                                                ; preds = %5
  %8 = add nsw i64 %1, -1
  %9 = sdiv i64 %8, 8
  %10 = shl nsw i64 %9, 3
  %11 = add i64 %10, 8
  br label %_ZN5arrow8bit_util7RoundUpEll.exit.i

_ZN5arrow8bit_util7RoundUpEll.exit.i:             ; preds = %7, %5
  %12 = phi i64 [ %11, %7 ], [ 0, %5 ]
  %13 = sub nsw i64 %12, %1
  %sext.i = shl i64 %13, 32
  %14 = ashr exact i64 %sext.i, 32
  %15 = icmp slt i64 %2, %14
  br i1 %15, label %16, label %29

16:                                               ; preds = %_ZN5arrow8bit_util7RoundUpEll.exit.i
  %sext36.i = sub i64 34359738368, %sext.i
  %17 = ashr exact i64 %sext36.i, 32
  %18 = getelementptr inbounds [8 x i8], ptr @_ZN5arrow8bit_utilL17kPrecedingBitmaskE, i64 0, i64 %17
  %19 = load i8, ptr %18, align 1, !tbaa !3
  %20 = add nsw i64 %17, %2
  %21 = getelementptr inbounds [8 x i8], ptr @_ZN5arrow8bit_utilL17kPrecedingBitmaskE, i64 0, i64 %20
  %22 = load i8, ptr %21, align 1, !tbaa !3
  %23 = sdiv i64 %1, 8
  %24 = getelementptr inbounds i8, ptr %0, i64 %23
  %25 = load i8, ptr %24, align 1, !tbaa !3
  %26 = xor i8 %19, %22
  %27 = xor i8 %26, -1
  %28 = and i8 %25, %27
  store i8 %28, ptr %24, align 1, !tbaa !3
  br label %_ZN5arrow8bit_util13SetBitmapImplILb0EEEvPhll.exit

29:                                               ; preds = %_ZN5arrow8bit_util7RoundUpEll.exit.i
  %30 = trunc i64 %13 to i32
  %31 = sub nsw i32 8, %30
  %32 = sdiv i64 %1, 8
  %33 = getelementptr inbounds i8, ptr %0, i64 %32
  %34 = load i8, ptr %33, align 1, !tbaa !3
  %35 = icmp ult i32 %31, 8
  %36 = zext i1 %35 to i32
  %37 = and i32 %31, 7
  %38 = shl nuw nsw i32 %36, %37
  %39 = trunc nuw i32 %38 to i8
  %40 = add i8 %39, -1
  %41 = and i8 %34, %40
  store i8 %41, ptr %33, align 1, !tbaa !3
  %42 = add nsw i64 %14, %1
  %43 = sub nsw i64 %2, %14
  %44 = sdiv i64 %42, 8
  %45 = getelementptr inbounds i8, ptr %0, i64 %44
  %46 = sdiv i64 %43, 8
  tail call void @llvm.memset.p0.i64(ptr align 1 %45, i8 0, i64 %46, i1 false)
  %47 = srem i64 %43, 8
  %48 = icmp sgt i64 %47, 0
  br i1 %48, label %49, label %_ZN5arrow8bit_util13SetBitmapImplILb0EEEvPhll.exit

49:                                               ; preds = %29
  %50 = add i64 %2, %1
  %51 = sub i64 %50, %47
  %52 = trunc nsw i64 %47 to i32
  %53 = sdiv i64 %51, 8
  %54 = getelementptr inbounds i8, ptr %0, i64 %53
  %55 = load i8, ptr %54, align 1, !tbaa !3
  %.neg.i = shl nsw i32 -1, %52
  %.neg37.i = trunc i32 %.neg.i to i8
  %56 = and i8 %55, %.neg37.i
  store i8 %56, ptr %54, align 1, !tbaa !3
  br label %_ZN5arrow8bit_util13SetBitmapImplILb0EEEvPhll.exit

_ZN5arrow8bit_util13SetBitmapImplILb0EEEvPhll.exit: ; preds = %3, %16, %29, %49
  ret void
}